; Function Attrs: nounwind uwtable
define ptr @l_Lean_Omega_Coeffs_bmod__dot__sub__dot__bmod(ptr noundef %0, ptr noundef %1, ptr noundef %2) local_unnamed_addr #0 {
  %4 = ptrtoint ptr %2 to i64
  %5 = and i64 %4, 1
  %.not = icmp eq i64 %5, 0
  br i1 %.not, label %6, label %lean_inc.exit18

6:                                                ; preds = %3
  %.val.i = load i32, ptr %2, align 4, !tbaa !4
  %7 = icmp sgt i32 %.val.i, 0
  br i1 %7, label %8, label %10, !prof !9

8:                                                ; preds = %6
  %9 = add nuw i32 %.val.i, 1
  store i32 %9, ptr %2, align 4, !tbaa !4
  br label %lean_inc.exit18

10:                                               ; preds = %6
  %.not.i28 = icmp eq i32 %.val.i, 0
  br i1 %.not.i28, label %lean_inc.exit18, label %11

11:                                               ; preds = %10
  tail call void @lean_inc_ref_cold(ptr noundef nonnull %2) #3
  br label %lean_inc.exit18

lean_inc.exit18:                                  ; preds = %11, %10, %8, %3
  %12 = tail call ptr @l_Lean_Omega_IntList_dot(ptr noundef %1, ptr noundef %2) #3
  %13 = ptrtoint ptr %0 to i64
  %14 = and i64 %13, 1
  %.not33 = icmp eq i64 %14, 0
  br i1 %.not33, label %15, label %lean_inc.exit

15:                                               ; preds = %lean_inc.exit18
  %.val.i29 = load i32, ptr %0, align 4, !tbaa !4
  %16 = icmp sgt i32 %.val.i29, 0
  br i1 %16, label %17, label %19, !prof !9

17:                                               ; preds = %15
  %18 = add nuw i32 %.val.i29, 1
  store i32 %18, ptr %0, align 4, !tbaa !4
  br label %lean_inc.exit

19:                                               ; preds = %15
  %.not.i30 = icmp eq i32 %.val.i29, 0
  br i1 %.not.i30, label %lean_inc.exit, label %20

20:                                               ; preds = %19
  tail call void @lean_inc_ref_cold(ptr noundef nonnull %0) #3
  br label %lean_inc.exit

lean_inc.exit:                                    ; preds = %20, %19, %17, %lean_inc.exit18
  %21 = tail call ptr @l_Int_bmod(ptr noundef %12, ptr noundef %0) #3
  %22 = ptrtoint ptr %12 to i64
  %23 = and i64 %22, 1
  %.not34 = icmp eq i64 %23, 0
  br i1 %.not34, label %24, label %lean_dec.exit21

24:                                               ; preds = %lean_inc.exit
  %25 = load i32, ptr %12, align 4, !tbaa !4
  %26 = icmp sgt i32 %25, 1
  br i1 %26, label %27, label %29, !prof !9

27:                                               ; preds = %24
  %28 = add nsw i32 %25, -1
  store i32 %28, ptr %12, align 4, !tbaa !4
  br label %lean_dec.exit21

29:                                               ; preds = %24
  %.not.i = icmp eq i32 %25, 0
  br i1 %.not.i, label %lean_dec.exit21, label %30

30:                                               ; preds = %29
  tail call void @lean_dec_ref_cold(ptr noundef nonnull %12) #3
  br label %lean_dec.exit21

lean_dec.exit21:                                  ; preds = %30, %29, %27, %lean_inc.exit
  %31 = tail call ptr @l_List_mapTR_loop___at_Lean_Omega_Coeffs_bmod__dot__sub__dot__bmod___spec__1(ptr noundef %0, ptr noundef %1, ptr noundef nonnull inttoptr (i64 1 to ptr))
  %32 = tail call ptr @l_Lean_Omega_IntList_dot(ptr noundef %31, ptr noundef %2) #3
  %33 = ptrtoint ptr %31 to i64
  %34 = and i64 %33, 1
  %.not35 = icmp eq i64 %34, 0
  br i1 %.not35, label %35, label %lean_dec.exit20

35:                                               ; preds = %lean_dec.exit21
  %36 = load i32, ptr %31, align 4, !tbaa !4
  %37 = icmp sgt i32 %36, 1
  br i1 %37, label %38, label %40, !prof !9

38:                                               ; preds = %35
  %39 = add nsw i32 %36, -1
  store i32 %39, ptr %31, align 4, !tbaa !4
  br label %lean_dec.exit20

40:                                               ; preds = %35
  %.not.i22 = icmp eq i32 %36, 0
  br i1 %.not.i22, label %lean_dec.exit20, label %41

41:                                               ; preds = %40
  tail call void @lean_dec_ref_cold(ptr noundef nonnull %31) #3
  br label %lean_dec.exit20

lean_dec.exit20:                                  ; preds = %41, %40, %38, %lean_dec.exit21
  %42 = ptrtoint ptr %21 to i64
  %43 = and i64 %42, 1
  %.not.i32 = icmp eq i64 %43, 0
  %.pre40 = ptrtoint ptr %32 to i64
  %.pre = and i64 %.pre40, 1
  %44 = icmp eq i64 %.pre, 0
  br i1 %.not.i32, label %lean_int_sub.exit, label %45, !prof !13

45:                                               ; preds = %lean_dec.exit20
  br i1 %44, label %lean_int_sub.exit.thread44, label %47, !prof !13

lean_int_sub.exit.thread44:                       ; preds = %45
  %46 = tail call ptr @lean_int_big_sub(ptr noundef %21, ptr noundef %32) #3
  br label %63

47:                                               ; preds = %45
  %48 = shl i64 %42, 31
  %49 = ashr i64 %48, 32
  %50 = shl i64 %.pre40, 31
  %51 = ashr i64 %50, 32
  %52 = sub nsw i64 %49, %51
  %53 = add nsw i64 %52, 2147483648
  %54 = icmp ult i64 %53, 4294967296
  br i1 %54, label %55, label %60, !prof !9

55:                                               ; preds = %47
  %56 = shl nsw i64 %52, 1
  %57 = and i64 %56, 8589934590
  %58 = or disjoint i64 %57, 1
  %59 = inttoptr i64 %58 to ptr
  br label %lean_dec.exit

60:                                               ; preds = %47
  %61 = tail call ptr @lean_big_int64_to_int(i64 noundef range(i64 -4294967295, 4294967296) %52) #3
  br label %lean_dec.exit

lean_int_sub.exit:                                ; preds = %lean_dec.exit20
  %62 = tail call ptr @lean_int_big_sub(ptr noundef %21, ptr noundef %32) #3
  br i1 %44, label %63, label %lean_dec.exit19.thread

63:                                               ; preds = %lean_int_sub.exit.thread44, %lean_int_sub.exit
  %64 = phi ptr [ %46, %lean_int_sub.exit.thread44 ], [ %62, %lean_int_sub.exit ]
  %65 = load i32, ptr %32, align 4, !tbaa !4
  %66 = icmp sgt i32 %65, 1
  br i1 %66, label %67, label %69, !prof !9

67:                                               ; preds = %63
  %68 = add nsw i32 %65, -1
  store i32 %68, ptr %32, align 4, !tbaa !4
  br label %lean_dec.exit19

69:                                               ; preds = %63
  %.not.i24 = icmp eq i32 %65, 0
  br i1 %.not.i24, label %lean_dec.exit19, label %70

70:                                               ; preds = %69
  tail call void @lean_dec_ref_cold(ptr noundef nonnull %32) #3
  br label %lean_dec.exit19

lean_dec.exit19:                                  ; preds = %70, %69, %67
  br i1 %.not.i32, label %lean_dec.exit19.thread, label %lean_dec.exit

lean_dec.exit19.thread:                           ; preds = %lean_int_sub.exit, %lean_dec.exit19
  %.0.i4348 = phi ptr [ %64, %lean_dec.exit19 ], [ %62, %lean_int_sub.exit ]
  %71 = load i32, ptr %21, align 4, !tbaa !4
  %72 = icmp sgt i32 %71, 1
  br i1 %72, label %73, label %75, !prof !9

73:                                               ; preds = %lean_dec.exit19.thread
  %74 = add nsw i32 %71, -1
  store i32 %74, ptr %21, align 4, !tbaa !4
  br label %lean_dec.exit

75:                                               ; preds = %lean_dec.exit19.thread
  %.not.i26 = icmp eq i32 %71, 0
  br i1 %.not.i26, label %lean_dec.exit, label %76

76:                                               ; preds = %75
  tail call void @lean_dec_ref_cold(ptr noundef nonnull %21) #3
  br label %lean_dec.exit

lean_dec.exit:                                    ; preds = %55, %60, %76, %75, %73, %lean_dec.exit19
  %.0.i4347 = phi ptr [ %.0.i4348, %76 ], [ %.0.i4348, %75 ], [ %.0.i4348, %73 ], [ %64, %lean_dec.exit19 ], [ %61, %60 ], [ %59, %55 ]
  ret ptr %.0.i4347
}